; Function Attrs: mustprogress uwtable
define noundef double @cvPointPolygonTest(ptr noundef %0, <2 x float> %1, i32 noundef %2) local_unnamed_addr #1 personality ptr @__gxx_personality_v0 {
  %4 = alloca %"class.cv::AutoBuffer", align 8
  %5 = alloca %"class.cv::Mat", align 8
  %6 = alloca %"class.cv::_InputArray", align 8
  %7 = getelementptr inbounds i8, ptr %4, i64 16
  store ptr %7, ptr %4, align 8
  %8 = getelementptr inbounds i8, ptr %4, i64 8
  store i64 136, ptr %8, align 8
  invoke void @_ZN2cv10cvarrToMatEPKvbbiPNS_10AutoBufferIdLm136EEE(ptr dead_on_unwind nonnull writable sret(%"class.cv::Mat") align 8 %5, ptr noundef %0, i1 noundef zeroext false, i1 noundef zeroext false, i32 noundef 0, ptr noundef nonnull %4)
          to label %9 unwind label %19

9:                                                ; preds = %3
  %10 = getelementptr inbounds i8, ptr %6, i64 16
  store i32 0, ptr %10, align 8
  %11 = getelementptr inbounds i8, ptr %6, i64 20
  store i32 0, ptr %11, align 4
  store i32 16842752, ptr %6, align 8
  %12 = getelementptr inbounds i8, ptr %6, i64 8
  store ptr %5, ptr %12, align 8
  %13 = icmp ne i32 %2, 0
  %14 = invoke noundef double @_ZN2cv16pointPolygonTestERKNS_11_InputArrayENS_6Point_IfEEb(ptr noundef nonnull align 8 dereferenceable(24) %6, <2 x float> %1, i1 noundef zeroext %13)
          to label %15 unwind label %21

15:                                               ; preds = %9
  call void @_ZN2cv3MatD1Ev(ptr noundef nonnull align 8 dereferenceable(96) %5) #17
  %16 = load ptr, ptr %4, align 8
  %.not.i.i = icmp eq ptr %16, %7
  %17 = icmp eq ptr %16, null
  %or.cond = or i1 %.not.i.i, %17
  br i1 %or.cond, label %_ZN2cv10AutoBufferIdLm136EED2Ev.exit, label %18

18:                                               ; preds = %15
  call void @_ZdaPv(ptr noundef nonnull %16) #20
  br label %_ZN2cv10AutoBufferIdLm136EED2Ev.exit

_ZN2cv10AutoBufferIdLm136EED2Ev.exit:             ; preds = %18, %15
  ret double %14

19:                                               ; preds = %3
  %20 = landingpad { ptr, i32 }
          cleanup
  br label %23

21:                                               ; preds = %9
  %22 = landingpad { ptr, i32 }
          cleanup
  call void @_ZN2cv3MatD1Ev(ptr noundef nonnull align 8 dereferenceable(96) %5) #17
  br label %23

23:                                               ; preds = %21, %19
  %.pn.pn = phi { ptr, i32 } [ %22, %21 ], [ %20, %19 ]
  %24 = load ptr, ptr %4, align 8
  %.not.i.i7 = icmp eq ptr %24, %7
  %25 = icmp eq ptr %24, null
  %or.cond9 = or i1 %.not.i.i7, %25
  br i1 %or.cond9, label %_ZN2cv10AutoBufferIdLm136EED2Ev.exit8, label %26

26:                                               ; preds = %23
  call void @_ZdaPv(ptr noundef nonnull %24) #20
  br label %_ZN2cv10AutoBufferIdLm136EED2Ev.exit8

_ZN2cv10AutoBufferIdLm136EED2Ev.exit8:            ; preds = %26, %23
  resume { ptr, i32 } %.pn.pn
}